target datalayout = "e-m:e-p270:32:32-p271:32:32-p272:64:64-i64:64-i128:128-f80:128-n8:16:32:64-S128"
target triple = "x86_64-pc-linux-gnu"

%struct.gmx_ana_selparam_t = type { ptr, %struct.gmx_ana_selvalue_t, ptr, i32 }
%struct.gmx_ana_selvalue_t = type { i32, i32, %union.anon, i32 }
%union.anon = type { ptr }
%struct.t_methoddata_kwreal = type { ptr, i32, ptr }

; Function Attrs: mustprogress nounwind uwtable
define internal void @_ZL11init_kwrealPK10gmx_mtop_tiP18gmx_ana_selparam_tPv(ptr noundef %0, i32 noundef %1, ptr noundef %2, ptr noundef %3) #1 {
  %5 = alloca ptr, align 8
  %6 = alloca i32, align 4
  %7 = alloca ptr, align 8
  %8 = alloca ptr, align 8
  %9 = alloca ptr, align 8
  store ptr %0, ptr %5, align 8, !tbaa !13
  store i32 %1, ptr %6, align 4, !tbaa !4
  store ptr %2, ptr %7, align 8, !tbaa !8
  store ptr %3, ptr %8, align 8, !tbaa !15
  call void @llvm.lifetime.start.p0(i64 8, ptr %9) #22
  %10 = load ptr, ptr %8, align 8, !tbaa !15
  store ptr %10, ptr %9, align 8, !tbaa !45
  %11 = load ptr, ptr %7, align 8, !tbaa !8
  %12 = getelementptr inbounds %struct.gmx_ana_selparam_t, ptr %11, i64 0
  %13 = getelementptr inbounds nuw %struct.gmx_ana_selparam_t, ptr %12, i32 0, i32 1
  %14 = getelementptr inbounds nuw %struct.gmx_ana_selvalue_t, ptr %13, i32 0, i32 2
  %15 = load ptr, ptr %14, align 8, !tbaa !16
  %16 = load ptr, ptr %9, align 8, !tbaa !45
  %17 = getelementptr inbounds nuw %struct.t_methoddata_kwreal, ptr %16, i32 0, i32 0
  store ptr %15, ptr %17, align 8, !tbaa !47
  %18 = load ptr, ptr %7, align 8, !tbaa !8
  %19 = getelementptr inbounds %struct.gmx_ana_selparam_t, ptr %18, i64 1
  %20 = getelementptr inbounds nuw %struct.gmx_ana_selparam_t, ptr %19, i32 0, i32 1
  %21 = getelementptr inbounds nuw %struct.gmx_ana_selvalue_t, ptr %20, i32 0, i32 1
  %22 = load i32, ptr %21, align 4, !tbaa !20
  %23 = load ptr, ptr %9, align 8, !tbaa !45
  %24 = getelementptr inbounds nuw %struct.t_methoddata_kwreal, ptr %23, i32 0, i32 1
  store i32 %22, ptr %24, align 8, !tbaa !50
  %25 = load ptr, ptr %7, align 8, !tbaa !8
  %26 = getelementptr inbounds %struct.gmx_ana_selparam_t, ptr %25, i64 1
  %27 = getelementptr inbounds nuw %struct.gmx_ana_selparam_t, ptr %26, i32 0, i32 1
  %28 = getelementptr inbounds nuw %struct.gmx_ana_selvalue_t, ptr %27, i32 0, i32 2
  %29 = load ptr, ptr %28, align 8, !tbaa !16
  %30 = load ptr, ptr %9, align 8, !tbaa !45
  %31 = getelementptr inbounds nuw %struct.t_methoddata_kwreal, ptr %30, i32 0, i32 2
  store ptr %29, ptr %31, align 8, !tbaa !51
  call void @llvm.lifetime.end.p0(i64 8, ptr %9) #22
  ret void
}